target datalayout = "e-m:e-p270:32:32-p271:32:32-p272:64:64-i64:64-i128:128-f80:128-n8:16:32:64-S128"
target triple = "x86_64-pc-linux-gnu"

%struct.option = type { i32, i32, ptr, ptr, ptr, ptr, i32, ptr, i64, ptr, i64, ptr }

@.str.1 = private unnamed_addr constant [23 x i8] c"builtin/pack-objects.c\00", align 1
@.str.140 = private unnamed_addr constant [44 x i8] c"option callback does not expect an argument\00", align 1

; Function Attrs: nounwind uwtable
define internal i32 @option_parse_quiet(ptr noundef %0, ptr noundef %1, i32 noundef %2) #0 {
  %4 = alloca ptr, align 8
  %5 = alloca ptr, align 8
  %6 = alloca i32, align 4
  %7 = alloca ptr, align 8
  store ptr %0, ptr %4, align 8, !tbaa !127
  store ptr %1, ptr %5, align 8, !tbaa !24
  store i32 %2, ptr %6, align 4, !tbaa !27
  call void @llvm.lifetime.start.p0(i64 8, ptr %7) #11
  %8 = load ptr, ptr %4, align 8, !tbaa !127
  %9 = getelementptr inbounds nuw %struct.option, ptr %8, i32 0, i32 3
  %10 = load ptr, ptr %9, align 8, !tbaa !41
  store ptr %10, ptr %7, align 8, !tbaa !129
  br label %11

11:                                               ; preds = %3
  %12 = load ptr, ptr %5, align 8, !tbaa !24
  %13 = icmp ne ptr %12, null
  br i1 %13, label %14, label %15

14:                                               ; preds = %11
  call void (ptr, i32, ptr, ...) @BUG_fl(ptr noundef @.str.1, i32 noundef 4257, ptr noundef @.str.140) #12
  unreachable

15:                                               ; preds = %11
  br label %16

16:                                               ; preds = %15
  br label %17

17:                                               ; preds = %16
  %18 = load i32, ptr %6, align 4, !tbaa !27
  %19 = icmp ne i32 %18, 0
  br i1 %19, label %22, label %20

20:                                               ; preds = %17
  %21 = load ptr, ptr %7, align 8, !tbaa !129
  store i32 0, ptr %21, align 4, !tbaa !27
  br label %29

22:                                               ; preds = %17
  %23 = load ptr, ptr %7, align 8, !tbaa !129
  %24 = load i32, ptr %23, align 4, !tbaa !27
  %25 = icmp ne i32 %24, 0
  br i1 %25, label %28, label %26

26:                                               ; preds = %22
  %27 = load ptr, ptr %7, align 8, !tbaa !129
  store i32 1, ptr %27, align 4, !tbaa !27
  br label %28

28:                                               ; preds = %26, %22
  br label %29

29:                                               ; preds = %28, %20
  call void @llvm.lifetime.end.p0(i64 8, ptr %7) #11
  ret i32 0
}