; Function Attrs: nounwind uwtable
define internal noundef i32 @option_parse_quiet(ptr noundef readonly captures(none) %0, ptr noundef readnone %1, i32 noundef %2) #0 {
  %4 = getelementptr inbounds nuw i8, ptr %0, i64 16
  %5 = load ptr, ptr %4, align 8, !tbaa !35
  %.not = icmp eq ptr %1, null
  br i1 %.not, label %7, label %6

6:                                                ; preds = %3
  tail call void (ptr, i32, ptr, ...) @BUG_fl(ptr noundef nonnull @.str.1, i32 noundef 4257, ptr noundef nonnull @.str.140) #26
  unreachable

7:                                                ; preds = %3
  %.not5 = icmp eq i32 %2, 0
  br i1 %.not5, label %.sink.split, label %8

8:                                                ; preds = %7
  %9 = load i32, ptr %5, align 4, !tbaa !30
  %.not6 = icmp eq i32 %9, 0
  br i1 %.not6, label %.sink.split, label %10

.sink.split:                                      ; preds = %8, %7
  %.sink = phi i32 [ 0, %7 ], [ 1, %8 ]
  store i32 %.sink, ptr %5, align 4, !tbaa !30
  br label %10

10:                                               ; preds = %.sink.split, %8
  ret i32 0
}